target datalayout = "e-m:e-p270:32:32-p271:32:32-p272:64:64-i64:64-i128:128-f80:128-n8:16:32:64-S128"
target triple = "x86_64-pc-linux-gnu"

%"class.Eigen::Transform" = type { %"class.Eigen::Matrix" }
%"class.Eigen::Matrix" = type { %"class.Eigen::PlainObjectBase" }
%"class.Eigen::PlainObjectBase" = type { %"class.Eigen::DenseStorage" }
%"class.Eigen::DenseStorage" = type { %"struct.Eigen::internal::plain_array" }
%"struct.Eigen::internal::plain_array" = type { [16 x double] }
%"struct.g2o::HyperGraph::HyperGraphElement" = type { ptr }
%"class.std::vector" = type { %"struct.std::_Vector_base" }
%"struct.std::_Vector_base" = type { %"struct.std::_Vector_base<g2o::Parameter *, std::allocator<g2o::Parameter *>>::_Vector_impl" }
%"struct.std::_Vector_base<g2o::Parameter *, std::allocator<g2o::Parameter *>>::_Vector_impl" = type { %"struct.std::_Vector_base<g2o::Parameter *, std::allocator<g2o::Parameter *>>::_Vector_impl_data" }
%"struct.std::_Vector_base<g2o::Parameter *, std::allocator<g2o::Parameter *>>::_Vector_impl_data" = type { ptr, ptr, ptr }
%"class.g2o::CacheSE3Offset" = type { %"class.g2o::Cache", ptr, %"class.Eigen::Transform", %"class.Eigen::Transform", %"class.Eigen::Transform" }
%"class.g2o::Cache" = type { %"struct.g2o::HyperGraph::HyperGraphElement", i8, %"class.std::vector", %"class.std::vector.21", ptr }
%"class.std::vector.21" = type { %"struct.std::_Vector_base.22" }
%"struct.std::_Vector_base.22" = type { %"struct.std::_Vector_base<g2o::Cache *, std::allocator<g2o::Cache *>>::_Vector_impl" }
%"struct.std::_Vector_base<g2o::Cache *, std::allocator<g2o::Cache *>>::_Vector_impl" = type { %"struct.std::_Vector_base<g2o::Cache *, std::allocator<g2o::Cache *>>::_Vector_impl_data" }
%"struct.std::_Vector_base<g2o::Cache *, std::allocator<g2o::Cache *>>::_Vector_impl_data" = type { ptr, ptr, ptr }

@_ZTIN3g2o9ParameterE = linkonce_odr constant { ptr, ptr, ptr } { ptr getelementptr inbounds (ptr, ptr @_ZTVN10__cxxabiv120__si_class_type_infoE, i64 2), ptr @_ZTSN3g2o9ParameterE, ptr @_ZTIN3g2o10HyperGraph17HyperGraphElementE }, comdat, align 8
@_ZTIN3g2o18ParameterSE3OffsetE = constant { ptr, ptr, ptr } { ptr getelementptr inbounds (ptr, ptr @_ZTVN10__cxxabiv120__si_class_type_infoE, i64 2), ptr @_ZTSN3g2o18ParameterSE3OffsetE, ptr @_ZTIN3g2o9ParameterE }, align 8

; Function Attrs: mustprogress nounwind uwtable
define linkonce_odr noundef nonnull align 8 dereferenceable(8) ptr @_ZNSt6vectorIPN3g2o9ParameterESaIS2_EEixEm(ptr noundef nonnull align 8 dereferenceable(24) %0, i64 noundef %1) #4 comdat align 2 {
  %3 = alloca ptr, align 8
  %4 = alloca i64, align 8
  store ptr %0, ptr %3, align 8, !tbaa !73
  store i64 %1, ptr %4, align 8, !tbaa !79
  %5 = load ptr, ptr %3, align 8
  %6 = getelementptr inbounds nuw %"struct.std::_Vector_base", ptr %5, i32 0, i32 0
  %7 = getelementptr inbounds nuw %"struct.std::_Vector_base<g2o::Parameter *, std::allocator<g2o::Parameter *>>::_Vector_impl_data", ptr %6, i32 0, i32 0
  %8 = load ptr, ptr %7, align 8, !tbaa !75
  %9 = load i64, ptr %4, align 8, !tbaa !79
  %10 = getelementptr inbounds nuw ptr, ptr %8, i64 %9
  ret ptr %10
}

; Function Attrs: mustprogress nounwind uwtable
define noundef zeroext i1 @_ZN3g2o14CacheSE3Offset19resolveDependenciesEv(ptr noundef nonnull align 16 dereferenceable(464) %0) unnamed_addr #4 align 2 {
  %2 = alloca ptr, align 8
  store ptr %0, ptr %2, align 8, !tbaa !51
  %3 = load ptr, ptr %2, align 8
  %4 = getelementptr inbounds nuw %"class.g2o::Cache", ptr %3, i32 0, i32 2
  %5 = call noundef nonnull align 8 dereferenceable(8) ptr @_ZNSt6vectorIPN3g2o9ParameterESaIS2_EEixEm(ptr noundef nonnull align 8 dereferenceable(24) %4, i64 noundef 0) #3
  %6 = load ptr, ptr %5, align 8, !tbaa !77
  %7 = icmp eq ptr %6, null
  br i1 %7, label %10, label %8

8:                                                ; preds = %1
  %9 = call ptr @__dynamic_cast(ptr %6, ptr @_ZTIN3g2o9ParameterE, ptr @_ZTIN3g2o18ParameterSE3OffsetE, i64 0) #3
  br label %11

10:                                               ; preds = %1
  br label %11

11:                                               ; preds = %10, %8
  %12 = phi ptr [ %9, %8 ], [ null, %10 ]
  %13 = getelementptr inbounds nuw %"class.g2o::CacheSE3Offset", ptr %3, i32 0, i32 1
  store ptr %12, ptr %13, align 8, !tbaa !53
  %14 = getelementptr inbounds nuw %"class.g2o::CacheSE3Offset", ptr %3, i32 0, i32 1
  %15 = load ptr, ptr %14, align 8, !tbaa !53
  %16 = icmp ne ptr %15, null
  ret i1 %16
}